target datalayout = "e-m:e-p270:32:32-p271:32:32-p272:64:64-i64:64-i128:128-f80:128-n8:16:32:64-S128"
target triple = "x86_64-pc-linux-gnu"

%struct.Curl_hash = type { ptr, ptr, ptr, ptr, i64, i64 }
%struct.Curl_llist = type { ptr, ptr, ptr, i64 }
%struct.Curl_hash_element = type { %struct.Curl_llist_node, ptr, ptr, i64, [1 x i8] }
%struct.Curl_llist_node = type { ptr, ptr, ptr, ptr }

@Curl_cmalloc = external global ptr, align 8

; Function Attrs: nounwind uwtable
define internal ptr @mk_hash_element(ptr noundef %0, i64 noundef %1, ptr noundef %2, ptr noundef %3) #0 {
  %5 = alloca ptr, align 8
  %6 = alloca i64, align 8
  %7 = alloca ptr, align 8
  %8 = alloca ptr, align 8
  %9 = alloca ptr, align 8
  store ptr %0, ptr %5, align 8, !tbaa !10
  store i64 %1, ptr %6, align 8, !tbaa !8
  store ptr %2, ptr %7, align 8, !tbaa !10
  store ptr %3, ptr %8, align 8, !tbaa !10
  call void @llvm.lifetime.start.p0(i64 8, ptr %9) #5
  %10 = load ptr, ptr @Curl_cmalloc, align 8, !tbaa !10
  %11 = load i64, ptr %6, align 8, !tbaa !8
  %12 = add i64 64, %11
  %13 = call ptr %10(i64 noundef %12)
  store ptr %13, ptr %9, align 8, !tbaa !24
  %14 = load ptr, ptr %9, align 8, !tbaa !24
  %15 = icmp ne ptr %14, null
  br i1 %15, label %16, label %31

16:                                               ; preds = %4
  %17 = load ptr, ptr %9, align 8, !tbaa !24
  %18 = getelementptr inbounds nuw %struct.Curl_hash_element, ptr %17, i32 0, i32 4
  %19 = getelementptr inbounds [1 x i8], ptr %18, i64 0, i64 0
  %20 = load ptr, ptr %5, align 8, !tbaa !10
  %21 = load i64, ptr %6, align 8, !tbaa !8
  call void @llvm.memcpy.p0.p0.i64(ptr align 8 %19, ptr align 1 %20, i64 %21, i1 false)
  %22 = load i64, ptr %6, align 8, !tbaa !8
  %23 = load ptr, ptr %9, align 8, !tbaa !24
  %24 = getelementptr inbounds nuw %struct.Curl_hash_element, ptr %23, i32 0, i32 3
  store i64 %22, ptr %24, align 8, !tbaa !26
  %25 = load ptr, ptr %7, align 8, !tbaa !10
  %26 = load ptr, ptr %9, align 8, !tbaa !24
  %27 = getelementptr inbounds nuw %struct.Curl_hash_element, ptr %26, i32 0, i32 1
  store ptr %25, ptr %27, align 8, !tbaa !30
  %28 = load ptr, ptr %8, align 8, !tbaa !10
  %29 = load ptr, ptr %9, align 8, !tbaa !24
  %30 = getelementptr inbounds nuw %struct.Curl_hash_element, ptr %29, i32 0, i32 2
  store ptr %28, ptr %30, align 8, !tbaa !31
  br label %31

31:                                               ; preds = %16, %4
  %32 = load ptr, ptr %9, align 8, !tbaa !24
  call void @llvm.lifetime.end.p0(i64 8, ptr %9) #5
  ret ptr %32
}

; Function Attrs: nounwind uwtable
define hidden ptr @Curl_hash_add2(ptr noundef %0, ptr noundef %1, i64 noundef %2, ptr noundef %3, ptr noundef %4) #0 {
  %6 = alloca ptr, align 8
  %7 = alloca ptr, align 8
  %8 = alloca ptr, align 8
  %9 = alloca i64, align 8
  %10 = alloca ptr, align 8
  %11 = alloca ptr, align 8
  %12 = alloca ptr, align 8
  %13 = alloca ptr, align 8
  %14 = alloca ptr, align 8
  %15 = alloca i64, align 8
  %16 = alloca i32, align 4
  store ptr %0, ptr %7, align 8, !tbaa !3
  store ptr %1, ptr %8, align 8, !tbaa !10
  store i64 %2, ptr %9, align 8, !tbaa !8
  store ptr %3, ptr %10, align 8, !tbaa !10
  store ptr %4, ptr %11, align 8, !tbaa !10
  call void @llvm.lifetime.start.p0(i64 8, ptr %12) #5
  call void @llvm.lifetime.start.p0(i64 8, ptr %13) #5
  call void @llvm.lifetime.start.p0(i64 8, ptr %14) #5
  br label %17

17:                                               ; preds = %5
  br label %18

18:                                               ; preds = %17
  br label %19

19:                                               ; preds = %18
  br label %20

20:                                               ; preds = %19
  br label %21

21:                                               ; preds = %20
  br label %22

22:                                               ; preds = %21
  br label %23

23:                                               ; preds = %22
  br label %24

24:                                               ; preds = %23
  br label %25

25:                                               ; preds = %24
  %26 = load ptr, ptr %7, align 8, !tbaa !3
  %27 = getelementptr inbounds nuw %struct.Curl_hash, ptr %26, i32 0, i32 0
  %28 = load ptr, ptr %27, align 8, !tbaa !11
  %29 = icmp ne ptr %28, null
  br i1 %29, label %64, label %30

30:                                               ; preds = %25
  call void @llvm.lifetime.start.p0(i64 8, ptr %15) #5
  %31 = load ptr, ptr @Curl_cmalloc, align 8, !tbaa !10
  %32 = load ptr, ptr %7, align 8, !tbaa !3
  %33 = getelementptr inbounds nuw %struct.Curl_hash, ptr %32, i32 0, i32 4
  %34 = load i64, ptr %33, align 8, !tbaa !18
  %35 = mul i64 %34, 32
  %36 = call ptr %31(i64 noundef %35)
  %37 = load ptr, ptr %7, align 8, !tbaa !3
  %38 = getelementptr inbounds nuw %struct.Curl_hash, ptr %37, i32 0, i32 0
  store ptr %36, ptr %38, align 8, !tbaa !11
  %39 = load ptr, ptr %7, align 8, !tbaa !3
  %40 = getelementptr inbounds nuw %struct.Curl_hash, ptr %39, i32 0, i32 0
  %41 = load ptr, ptr %40, align 8, !tbaa !11
  %42 = icmp ne ptr %41, null
  br i1 %42, label %44, label %43

43:                                               ; preds = %30
  store ptr null, ptr %6, align 8
  store i32 1, ptr %16, align 4
  br label %61

44:                                               ; preds = %30
  store i64 0, ptr %15, align 8, !tbaa !8
  br label %45

45:                                               ; preds = %57, %44
  %46 = load i64, ptr %15, align 8, !tbaa !8
  %47 = load ptr, ptr %7, align 8, !tbaa !3
  %48 = getelementptr inbounds nuw %struct.Curl_hash, ptr %47, i32 0, i32 4
  %49 = load i64, ptr %48, align 8, !tbaa !18
  %50 = icmp ult i64 %46, %49
  br i1 %50, label %51, label %60

51:                                               ; preds = %45
  %52 = load ptr, ptr %7, align 8, !tbaa !3
  %53 = getelementptr inbounds nuw %struct.Curl_hash, ptr %52, i32 0, i32 0
  %54 = load ptr, ptr %53, align 8, !tbaa !11
  %55 = load i64, ptr %15, align 8, !tbaa !8
  %56 = getelementptr inbounds nuw %struct.Curl_llist, ptr %54, i64 %55
  call void @Curl_llist_init(ptr noundef %56, ptr noundef @hash_element_dtor)
  br label %57

57:                                               ; preds = %51
  %58 = load i64, ptr %15, align 8, !tbaa !8
  %59 = add i64 %58, 1
  store i64 %59, ptr %15, align 8, !tbaa !8
  br label %45, !llvm.loop !19

60:                                               ; preds = %45
  store i32 0, ptr %16, align 4
  br label %61

61:                                               ; preds = %60, %43
  call void @llvm.lifetime.end.p0(i64 8, ptr %15) #5
  %62 = load i32, ptr %16, align 4
  switch i32 %62, label %129 [
    i32 0, label %63
  ]

63:                                               ; preds = %61
  br label %64

64:                                               ; preds = %63, %25
  %65 = load ptr, ptr %7, align 8, !tbaa !3
  %66 = getelementptr inbounds nuw %struct.Curl_hash, ptr %65, i32 0, i32 0
  %67 = load ptr, ptr %66, align 8, !tbaa !11
  %68 = load ptr, ptr %7, align 8, !tbaa !3
  %69 = getelementptr inbounds nuw %struct.Curl_hash, ptr %68, i32 0, i32 1
  %70 = load ptr, ptr %69, align 8, !tbaa !14
  %71 = load ptr, ptr %8, align 8, !tbaa !10
  %72 = load i64, ptr %9, align 8, !tbaa !8
  %73 = load ptr, ptr %7, align 8, !tbaa !3
  %74 = getelementptr inbounds nuw %struct.Curl_hash, ptr %73, i32 0, i32 4
  %75 = load i64, ptr %74, align 8, !tbaa !18
  %76 = call i64 %70(ptr noundef %71, i64 noundef %72, i64 noundef %75)
  %77 = getelementptr inbounds nuw %struct.Curl_llist, ptr %67, i64 %76
  store ptr %77, ptr %14, align 8, !tbaa !21
  %78 = load ptr, ptr %14, align 8, !tbaa !21
  %79 = call ptr @Curl_llist_head(ptr noundef %78)
  store ptr %79, ptr %13, align 8, !tbaa !22
  br label %80

80:                                               ; preds = %107, %64
  %81 = load ptr, ptr %13, align 8, !tbaa !22
  %82 = icmp ne ptr %81, null
  br i1 %82, label %83, label %110

83:                                               ; preds = %80
  %84 = load ptr, ptr %13, align 8, !tbaa !22
  %85 = call ptr @Curl_node_elem(ptr noundef %84)
  store ptr %85, ptr %12, align 8, !tbaa !24
  %86 = load ptr, ptr %7, align 8, !tbaa !3
  %87 = getelementptr inbounds nuw %struct.Curl_hash, ptr %86, i32 0, i32 2
  %88 = load ptr, ptr %87, align 8, !tbaa !15
  %89 = load ptr, ptr %12, align 8, !tbaa !24
  %90 = getelementptr inbounds nuw %struct.Curl_hash_element, ptr %89, i32 0, i32 4
  %91 = getelementptr inbounds [1 x i8], ptr %90, i64 0, i64 0
  %92 = load ptr, ptr %12, align 8, !tbaa !24
  %93 = getelementptr inbounds nuw %struct.Curl_hash_element, ptr %92, i32 0, i32 3
  %94 = load i64, ptr %93, align 8, !tbaa !26
  %95 = load ptr, ptr %8, align 8, !tbaa !10
  %96 = load i64, ptr %9, align 8, !tbaa !8
  %97 = call i64 %88(ptr noundef %91, i64 noundef %94, ptr noundef %95, i64 noundef %96)
  %98 = icmp ne i64 %97, 0
  br i1 %98, label %99, label %106

99:                                               ; preds = %83
  %100 = load ptr, ptr %13, align 8, !tbaa !22
  %101 = load ptr, ptr %7, align 8, !tbaa !3
  call void @Curl_node_uremove(ptr noundef %100, ptr noundef %101)
  %102 = load ptr, ptr %7, align 8, !tbaa !3
  %103 = getelementptr inbounds nuw %struct.Curl_hash, ptr %102, i32 0, i32 5
  %104 = load i64, ptr %103, align 8, !tbaa !17
  %105 = add i64 %104, -1
  store i64 %105, ptr %103, align 8, !tbaa !17
  br label %110

106:                                              ; preds = %83
  br label %107

107:                                              ; preds = %106
  %108 = load ptr, ptr %13, align 8, !tbaa !22
  %109 = call ptr @Curl_node_next(ptr noundef %108)
  store ptr %109, ptr %13, align 8, !tbaa !22
  br label %80, !llvm.loop !29

110:                                              ; preds = %99, %80
  %111 = load ptr, ptr %8, align 8, !tbaa !10
  %112 = load i64, ptr %9, align 8, !tbaa !8
  %113 = load ptr, ptr %10, align 8, !tbaa !10
  %114 = load ptr, ptr %11, align 8, !tbaa !10
  %115 = call ptr @mk_hash_element(ptr noundef %111, i64 noundef %112, ptr noundef %113, ptr noundef %114)
  store ptr %115, ptr %12, align 8, !tbaa !24
  %116 = load ptr, ptr %12, align 8, !tbaa !24
  %117 = icmp ne ptr %116, null
  br i1 %117, label %118, label %128

118:                                              ; preds = %110
  %119 = load ptr, ptr %14, align 8, !tbaa !21
  %120 = load ptr, ptr %12, align 8, !tbaa !24
  %121 = load ptr, ptr %12, align 8, !tbaa !24
  %122 = getelementptr inbounds nuw %struct.Curl_hash_element, ptr %121, i32 0, i32 0
  call void @Curl_llist_append(ptr noundef %119, ptr noundef %120, ptr noundef %122)
  %123 = load ptr, ptr %7, align 8, !tbaa !3
  %124 = getelementptr inbounds nuw %struct.Curl_hash, ptr %123, i32 0, i32 5
  %125 = load i64, ptr %124, align 8, !tbaa !17
  %126 = add i64 %125, 1
  store i64 %126, ptr %124, align 8, !tbaa !17
  %127 = load ptr, ptr %10, align 8, !tbaa !10
  store ptr %127, ptr %6, align 8
  store i32 1, ptr %16, align 4
  br label %129

128:                                              ; preds = %110
  store ptr null, ptr %6, align 8
  store i32 1, ptr %16, align 4
  br label %129

129:                                              ; preds = %128, %118, %61
  call void @llvm.lifetime.end.p0(i64 8, ptr %14) #5
  call void @llvm.lifetime.end.p0(i64 8, ptr %13) #5
  call void @llvm.lifetime.end.p0(i64 8, ptr %12) #5
  %130 = load ptr, ptr %6, align 8
  ret ptr %130
}